target datalayout = "e-m:e-p270:32:32-p271:32:32-p272:64:64-i64:64-i128:128-f80:128-n8:16:32:64-S128"
target triple = "x86_64-unknown-linux-gnu"

; Function Attrs: mustprogress nounwind uwtable
define internal noundef signext i8 @_ZL9U_FAILURE10UErrorCode(i32 noundef %code) #0 {
entry:
  %code.addr = alloca i32, align 4
  store i32 %code, ptr %code.addr, align 4
  %0 = load i32, ptr %code.addr, align 4
  %cmp = icmp sgt i32 %0, 0
  %conv = zext i1 %cmp to i8
  ret i8 %conv
}

; Function Attrs: mustprogress uwtable
define noundef ptr @_ZN6icu_7522RuleBasedBreakIterator17createBufferCloneEPvRiR10UErrorCode(ptr noundef nonnull align 8 dereferenceable(745) %this, ptr noundef %0, ptr noundef nonnull align 4 dereferenceable(4) %bufferSize, ptr noundef nonnull align 4 dereferenceable(4) %status) unnamed_addr #1 align 2 {
entry:
  %retval = alloca ptr, align 8
  %this.addr = alloca ptr, align 8
  %.addr = alloca ptr, align 8
  %bufferSize.addr = alloca ptr, align 8
  %status.addr = alloca ptr, align 8
  %clonedBI = alloca ptr, align 8
  store ptr %this, ptr %this.addr, align 8
  store ptr %0, ptr %.addr, align 8
  store ptr %bufferSize, ptr %bufferSize.addr, align 8
  store ptr %status, ptr %status.addr, align 8
  %this1 = load ptr, ptr %this.addr, align 8
  %1 = load ptr, ptr %status.addr, align 8
  %2 = load i32, ptr %1, align 4
  %call = call noundef signext i8 @_ZL9U_FAILURE10UErrorCode(i32 noundef %2)
  %tobool = icmp ne i8 %call, 0
  br i1 %tobool, label %if.then, label %if.end

if.then:                                          ; preds = %entry
  store ptr null, ptr %retval, align 8
  br label %return

if.end:                                           ; preds = %entry
  %3 = load ptr, ptr %bufferSize.addr, align 8
  %4 = load i32, ptr %3, align 4
  %cmp = icmp eq i32 %4, 0
  br i1 %cmp, label %if.then2, label %if.end3

if.then2:                                         ; preds = %if.end
  %5 = load ptr, ptr %bufferSize.addr, align 8
  store i32 1, ptr %5, align 4
  store ptr null, ptr %retval, align 8
  br label %return

if.end3:                                          ; preds = %if.end
  %vtable = load ptr, ptr %this1, align 8
  %vfn = getelementptr inbounds ptr, ptr %vtable, i64 4
  %6 = load ptr, ptr %vfn, align 8
  %call4 = call noundef ptr %6(ptr noundef nonnull align 8 dereferenceable(745) %this1)
  store ptr %call4, ptr %clonedBI, align 8
  %7 = load ptr, ptr %clonedBI, align 8
  %cmp5 = icmp eq ptr %7, null
  br i1 %cmp5, label %if.then6, label %if.else

if.then6:                                         ; preds = %if.end3
  %8 = load ptr, ptr %status.addr, align 8
  store i32 7, ptr %8, align 4
  br label %if.end7

if.else:                                          ; preds = %if.end3
  %9 = load ptr, ptr %status.addr, align 8
  store i32 -126, ptr %9, align 4
  br label %if.end7

if.end7:                                          ; preds = %if.else, %if.then6
  %10 = load ptr, ptr %clonedBI, align 8
  store ptr %10, ptr %retval, align 8
  br label %return

return:                                           ; preds = %if.end7, %if.then2, %if.then
  %11 = load ptr, ptr %retval, align 8
  ret ptr %11
}