; Function Attrs: mustprogress uwtable
define noundef ptr @_ZN6icu_7522RuleBasedBreakIterator17createBufferCloneEPvRiR10UErrorCode(ptr noundef nonnull align 8 dereferenceable(745) %this, ptr nocapture readnone %0, ptr nocapture noundef nonnull align 4 dereferenceable(4) %bufferSize, ptr nocapture noundef nonnull align 4 dereferenceable(4) %status) unnamed_addr #1 align 2 {
entry:
  %1 = load i32, ptr %status, align 4
  %cmp.i = icmp slt i32 %1, 1
  br i1 %cmp.i, label %if.end, label %return

if.end:                                           ; preds = %entry
  %2 = load i32, ptr %bufferSize, align 4
  %cmp = icmp eq i32 %2, 0
  br i1 %cmp, label %if.then2, label %if.end3

if.then2:                                         ; preds = %if.end
  store i32 1, ptr %bufferSize, align 4
  br label %return

if.end3:                                          ; preds = %if.end
  %vtable = load ptr, ptr %this, align 8
  %vfn = getelementptr inbounds i8, ptr %vtable, i64 32
  %3 = load ptr, ptr %vfn, align 8
  %call4 = tail call noundef ptr %3(ptr noundef nonnull align 8 dereferenceable(745) %this)
  %cmp5 = icmp eq ptr %call4, null
  %. = select i1 %cmp5, i32 7, i32 -126
  store i32 %., ptr %status, align 4
  br label %return

return:                                           ; preds = %entry, %if.end3, %if.then2
  %retval.0 = phi ptr [ null, %if.then2 ], [ %call4, %if.end3 ], [ null, %entry ]
  ret ptr %retval.0
}